; Function Attrs: mustprogress nofree norecurse nosync nounwind willreturn memory(argmem: write) uwtable
define void @ffio_init_write_context(ptr noundef writeonly captures(none) initializes((0, 280)) %0, ptr noundef %1, i32 noundef %2) local_unnamed_addr #0 {
  tail call void @llvm.memset.p0.i64(ptr noundef nonnull align 8 dereferenceable(280) %0, i8 0, i64 280, i1 false)
  %4 = getelementptr inbounds nuw i8, ptr %0, i64 8
  store ptr %1, ptr %4, align 8, !tbaa !4
  %5 = getelementptr inbounds nuw i8, ptr %0, i64 16
  store i32 %2, ptr %5, align 8, !tbaa !13
  %6 = getelementptr inbounds nuw i8, ptr %0, i64 264
  store i32 %2, ptr %6, align 8, !tbaa !14
  %7 = getelementptr inbounds nuw i8, ptr %0, i64 24
  store ptr %1, ptr %7, align 8, !tbaa !16
  %8 = getelementptr inbounds nuw i8, ptr %0, i64 184
  store ptr %1, ptr %8, align 8, !tbaa !17
  %.sink7.i.idx.i = sext i32 %2 to i64
  %.sink7.i.i = getelementptr inbounds i8, ptr %1, i64 %.sink7.i.idx.i
  %9 = getelementptr inbounds nuw i8, ptr %0, i64 32
  store ptr %.sink7.i.i, ptr %9, align 8, !tbaa !19
  %10 = getelementptr inbounds nuw i8, ptr %0, i64 88
  store i32 1, ptr %10, align 8, !tbaa !20
  %11 = getelementptr inbounds nuw i8, ptr %0, i64 48
  %12 = getelementptr inbounds nuw i8, ptr %0, i64 92
  store i32 0, ptr %12, align 4, !tbaa !25
  %13 = getelementptr inbounds nuw i8, ptr %0, i64 216
  tail call void @llvm.memset.p0.i64(ptr noundef nonnull align 8 dereferenceable(40) %11, i8 0, i64 40, i1 false)
  store i32 32768, ptr %13, align 8, !tbaa !26
  %14 = getelementptr inbounds nuw i8, ptr %0, i64 128
  %15 = getelementptr inbounds nuw i8, ptr %0, i64 176
  store i32 0, ptr %15, align 8, !tbaa !29
  %16 = getelementptr inbounds nuw i8, ptr %0, i64 220
  tail call void @llvm.memset.p0.i64(ptr noundef nonnull align 8 dereferenceable(16) %14, i8 0, i64 16, i1 false)
  store i32 3, ptr %16, align 4, !tbaa !30
  %17 = getelementptr inbounds nuw i8, ptr %0, i64 224
  store i64 -9223372036854775808, ptr %17, align 8, !tbaa !31
  ret void
}